target datalayout = "e-m:e-p270:32:32-p271:32:32-p272:64:64-i64:64-i128:128-f80:128-n8:16:32:64-S128"
target triple = "x86_64-pc-linux-gnu"

%struct.settings = type { i64, i32, i32, i32, ptr, i32, i32, i32, ptr, ptr, i32, double, i32, i32, i32, i8, i32, i32, i8, i32, i32, i32, i32, i32, i32, i8, i8, i8, i8, i8, i8, i8, i32, i32, double, double, i32, i32, i8, i32, i8, i8, ptr, i32, i32, i32, i32, double, double, i32, i8, i32, i32, i32, i32, i32, i8, i8, i8, ptr, i32, i32, i32, i32, i32, i32, i32, i32, i32, i32, double, i8, i32, i32, ptr, i32 }

@hash = dso_local global ptr null, align 8
@.str = private unnamed_addr constant [8 x i8] c"jenkins\00", align 1
@settings = external global %struct.settings, align 8
@.str.1 = private unnamed_addr constant [8 x i8] c"murmur3\00", align 1
@.str.2 = private unnamed_addr constant [5 x i8] c"xxh3\00", align 1

; Function Attrs: nounwind uwtable
define dso_local i32 @hash_init(i32 noundef %0) #0 {
  %2 = alloca i32, align 4
  %3 = alloca i32, align 4
  store i32 %0, ptr %3, align 4, !tbaa !4
  %4 = load i32, ptr %3, align 4, !tbaa !4
  switch i32 %4, label %8 [
    i32 0, label %5
    i32 1, label %6
    i32 2, label %7
  ]

5:                                                ; preds = %1
  store ptr @jenkins_hash, ptr @hash, align 8, !tbaa !8
  store ptr @.str, ptr getelementptr inbounds nuw (%struct.settings, ptr @settings, i32 0, i32 42), align 8, !tbaa !10
  br label %9

6:                                                ; preds = %1
  store ptr @MurmurHash3_x86_32, ptr @hash, align 8, !tbaa !8
  store ptr @.str.1, ptr getelementptr inbounds nuw (%struct.settings, ptr @settings, i32 0, i32 42), align 8, !tbaa !10
  br label %9

7:                                                ; preds = %1
  store ptr @XXH3_hash, ptr @hash, align 8, !tbaa !8
  store ptr @.str.2, ptr getelementptr inbounds nuw (%struct.settings, ptr @settings, i32 0, i32 42), align 8, !tbaa !10
  br label %9

8:                                                ; preds = %1
  store i32 -1, ptr %2, align 4
  br label %10

9:                                                ; preds = %7, %6, %5
  store i32 0, ptr %2, align 4
  br label %10

10:                                               ; preds = %9, %8
  %11 = load i32, ptr %2, align 4
  ret i32 %11
}